; Function Attrs: mustprogress uwtable
define void @_ZN32pxrInternal_v0_24__pxrReserved__22HdDataSourceLocatorSet6appendERKNS_19HdDataSourceLocatorE(ptr noundef nonnull align 8 dereferenceable(456) %0, ptr noundef nonnull align 8 dereferenceable(56) %1) local_unnamed_addr #0 align 2 {
  %3 = getelementptr inbounds nuw i8, ptr %0, i64 448
  %4 = load i32, ptr %3, align 8
  %5 = icmp eq i32 %4, 0
  br i1 %5, label %15, label %6

6:                                                ; preds = %2
  %7 = zext i32 %4 to i64
  %8 = getelementptr inbounds nuw i8, ptr %0, i64 452
  %9 = load i32, ptr %8, align 4
  %10 = icmp ult i32 %9, 9
  %11 = load ptr, ptr %0, align 8
  %spec.select.i.i.i = select i1 %10, ptr %0, ptr %11
  %12 = getelementptr %"class.pxrInternal_v0_24__pxrReserved__::HdDataSourceLocator", ptr %spec.select.i.i.i, i64 %7
  %13 = getelementptr i8, ptr %12, i64 -56
  %14 = tail call fastcc noundef zeroext i1 @_ZN32pxrInternal_v0_24__pxrReserved__L18_LessThanNotPrefixERKNS_19HdDataSourceLocatorES2_(ptr noundef nonnull align 8 dereferenceable(56) %13, ptr noundef nonnull align 8 dereferenceable(56) %1)
  br i1 %14, label %15, label %16

15:                                               ; preds = %6, %2
  tail call void @_ZN32pxrInternal_v0_24__pxrReserved__13TfSmallVectorINS_19HdDataSourceLocatorELj8EE12emplace_backIJRKS1_EEEvDpOT_(ptr noundef nonnull align 8 dereferenceable(456) %0, ptr noundef nonnull align 8 dereferenceable(56) %1)
  br label %17

16:                                               ; preds = %6
  tail call void @_ZN32pxrInternal_v0_24__pxrReserved__22HdDataSourceLocatorSet6insertERKNS_19HdDataSourceLocatorE(ptr noundef nonnull align 8 dereferenceable(456) %0, ptr noundef nonnull align 8 dereferenceable(56) %1)
  br label %17

17:                                               ; preds = %16, %15
  ret void
}